target datalayout = "e-m:e-p270:32:32-p271:32:32-p272:64:64-i64:64-i128:128-f80:128-n8:16:32:64-S128"
target triple = "x86_64-pc-linux-gnu"

%struct.SDL_PixelFormatDetails = type { i32, i8, i8, [2 x i8], i32, i32, i32, i32, i8, i8, i8, i8, i8, i8, i8, i8 }

@SDL_expand_byte = external global [9 x ptr], align 16

; Function Attrs: nounwind uwtable
define internal i32 @uncopy_opaque_16(ptr noundef %0, ptr noundef %1, i32 noundef %2, ptr noundef %3, ptr noundef %4) #0 {
  %6 = alloca ptr, align 8
  %7 = alloca ptr, align 8
  %8 = alloca i32, align 4
  %9 = alloca ptr, align 8
  %10 = alloca ptr, align 8
  %11 = alloca i32, align 4
  %12 = alloca ptr, align 8
  %13 = alloca i32, align 4
  %14 = alloca i32, align 4
  %15 = alloca i32, align 4
  %16 = alloca i32, align 4
  store ptr %0, ptr %6, align 8
  store ptr %1, ptr %7, align 8
  store i32 %2, ptr %8, align 4
  store ptr %3, ptr %9, align 8
  store ptr %4, ptr %10, align 8
  call void @llvm.lifetime.start.p0(i64 4, ptr %11) #8
  call void @llvm.lifetime.start.p0(i64 8, ptr %12) #8
  %17 = load ptr, ptr %7, align 8
  store ptr %17, ptr %12, align 8
  call void @llvm.lifetime.start.p0(i64 4, ptr %13) #8
  %18 = load ptr, ptr %10, align 8
  %19 = getelementptr inbounds nuw %struct.SDL_PixelFormatDetails, ptr %18, i32 0, i32 7
  %20 = load i32, ptr %19, align 4
  %21 = icmp ne i32 %20, 0
  %22 = select i1 %21, i32 255, i32 0
  store i32 %22, ptr %13, align 4
  store i32 0, ptr %11, align 4
  br label %23

23:                                               ; preds = %150, %5
  %24 = load i32, ptr %11, align 4
  %25 = load i32, ptr %8, align 4
  %26 = icmp slt i32 %24, %25
  br i1 %26, label %27, label %153

27:                                               ; preds = %23
  call void @llvm.lifetime.start.p0(i64 4, ptr %14) #8
  call void @llvm.lifetime.start.p0(i64 4, ptr %15) #8
  call void @llvm.lifetime.start.p0(i64 4, ptr %16) #8
  %28 = load ptr, ptr %9, align 8
  %29 = getelementptr inbounds nuw %struct.SDL_PixelFormatDetails, ptr %28, i32 0, i32 8
  %30 = load i8, ptr %29, align 4
  %31 = zext i8 %30 to i64
  %32 = getelementptr inbounds nuw [9 x ptr], ptr @SDL_expand_byte, i64 0, i64 %31
  %33 = load ptr, ptr %32, align 8
  %34 = load ptr, ptr %12, align 8
  %35 = load i16, ptr %34, align 2
  %36 = zext i16 %35 to i32
  %37 = load ptr, ptr %9, align 8
  %38 = getelementptr inbounds nuw %struct.SDL_PixelFormatDetails, ptr %37, i32 0, i32 4
  %39 = load i32, ptr %38, align 4
  %40 = and i32 %36, %39
  %41 = load ptr, ptr %9, align 8
  %42 = getelementptr inbounds nuw %struct.SDL_PixelFormatDetails, ptr %41, i32 0, i32 12
  %43 = load i8, ptr %42, align 4
  %44 = zext i8 %43 to i32
  %45 = lshr i32 %40, %44
  %46 = zext i32 %45 to i64
  %47 = getelementptr inbounds nuw i8, ptr %33, i64 %46
  %48 = load i8, ptr %47, align 1
  %49 = zext i8 %48 to i32
  store i32 %49, ptr %14, align 4
  %50 = load ptr, ptr %9, align 8
  %51 = getelementptr inbounds nuw %struct.SDL_PixelFormatDetails, ptr %50, i32 0, i32 9
  %52 = load i8, ptr %51, align 1
  %53 = zext i8 %52 to i64
  %54 = getelementptr inbounds nuw [9 x ptr], ptr @SDL_expand_byte, i64 0, i64 %53
  %55 = load ptr, ptr %54, align 8
  %56 = load ptr, ptr %12, align 8
  %57 = load i16, ptr %56, align 2
  %58 = zext i16 %57 to i32
  %59 = load ptr, ptr %9, align 8
  %60 = getelementptr inbounds nuw %struct.SDL_PixelFormatDetails, ptr %59, i32 0, i32 5
  %61 = load i32, ptr %60, align 4
  %62 = and i32 %58, %61
  %63 = load ptr, ptr %9, align 8
  %64 = getelementptr inbounds nuw %struct.SDL_PixelFormatDetails, ptr %63, i32 0, i32 13
  %65 = load i8, ptr %64, align 1
  %66 = zext i8 %65 to i32
  %67 = lshr i32 %62, %66
  %68 = zext i32 %67 to i64
  %69 = getelementptr inbounds nuw i8, ptr %55, i64 %68
  %70 = load i8, ptr %69, align 1
  %71 = zext i8 %70 to i32
  store i32 %71, ptr %15, align 4
  %72 = load ptr, ptr %9, align 8
  %73 = getelementptr inbounds nuw %struct.SDL_PixelFormatDetails, ptr %72, i32 0, i32 10
  %74 = load i8, ptr %73, align 2
  %75 = zext i8 %74 to i64
  %76 = getelementptr inbounds nuw [9 x ptr], ptr @SDL_expand_byte, i64 0, i64 %75
  %77 = load ptr, ptr %76, align 8
  %78 = load ptr, ptr %12, align 8
  %79 = load i16, ptr %78, align 2
  %80 = zext i16 %79 to i32
  %81 = load ptr, ptr %9, align 8
  %82 = getelementptr inbounds nuw %struct.SDL_PixelFormatDetails, ptr %81, i32 0, i32 6
  %83 = load i32, ptr %82, align 4
  %84 = and i32 %80, %83
  %85 = load ptr, ptr %9, align 8
  %86 = getelementptr inbounds nuw %struct.SDL_PixelFormatDetails, ptr %85, i32 0, i32 14
  %87 = load i8, ptr %86, align 2
  %88 = zext i8 %87 to i32
  %89 = lshr i32 %84, %88
  %90 = zext i32 %89 to i64
  %91 = getelementptr inbounds nuw i8, ptr %77, i64 %90
  %92 = load i8, ptr %91, align 1
  %93 = zext i8 %92 to i32
  store i32 %93, ptr %16, align 4
  %94 = load i32, ptr %14, align 4
  %95 = load ptr, ptr %10, align 8
  %96 = getelementptr inbounds nuw %struct.SDL_PixelFormatDetails, ptr %95, i32 0, i32 8
  %97 = load i8, ptr %96, align 4
  %98 = zext i8 %97 to i32
  %99 = sub nsw i32 8, %98
  %100 = lshr i32 %94, %99
  %101 = load ptr, ptr %10, align 8
  %102 = getelementptr inbounds nuw %struct.SDL_PixelFormatDetails, ptr %101, i32 0, i32 12
  %103 = load i8, ptr %102, align 4
  %104 = zext i8 %103 to i32
  %105 = shl i32 %100, %104
  %106 = load i32, ptr %15, align 4
  %107 = load ptr, ptr %10, align 8
  %108 = getelementptr inbounds nuw %struct.SDL_PixelFormatDetails, ptr %107, i32 0, i32 9
  %109 = load i8, ptr %108, align 1
  %110 = zext i8 %109 to i32
  %111 = sub nsw i32 8, %110
  %112 = lshr i32 %106, %111
  %113 = load ptr, ptr %10, align 8
  %114 = getelementptr inbounds nuw %struct.SDL_PixelFormatDetails, ptr %113, i32 0, i32 13
  %115 = load i8, ptr %114, align 1
  %116 = zext i8 %115 to i32
  %117 = shl i32 %112, %116
  %118 = or i32 %105, %117
  %119 = load i32, ptr %16, align 4
  %120 = load ptr, ptr %10, align 8
  %121 = getelementptr inbounds nuw %struct.SDL_PixelFormatDetails, ptr %120, i32 0, i32 10
  %122 = load i8, ptr %121, align 2
  %123 = zext i8 %122 to i32
  %124 = sub nsw i32 8, %123
  %125 = lshr i32 %119, %124
  %126 = load ptr, ptr %10, align 8
  %127 = getelementptr inbounds nuw %struct.SDL_PixelFormatDetails, ptr %126, i32 0, i32 14
  %128 = load i8, ptr %127, align 2
  %129 = zext i8 %128 to i32
  %130 = shl i32 %125, %129
  %131 = or i32 %118, %130
  %132 = load i32, ptr %13, align 4
  %133 = load ptr, ptr %10, align 8
  %134 = getelementptr inbounds nuw %struct.SDL_PixelFormatDetails, ptr %133, i32 0, i32 11
  %135 = load i8, ptr %134, align 1
  %136 = zext i8 %135 to i32
  %137 = sub nsw i32 8, %136
  %138 = lshr i32 %132, %137
  %139 = load ptr, ptr %10, align 8
  %140 = getelementptr inbounds nuw %struct.SDL_PixelFormatDetails, ptr %139, i32 0, i32 15
  %141 = load i8, ptr %140, align 1
  %142 = zext i8 %141 to i32
  %143 = shl i32 %138, %142
  %144 = or i32 %131, %143
  %145 = load ptr, ptr %6, align 8
  store i32 %144, ptr %145, align 4
  %146 = load ptr, ptr %12, align 8
  %147 = getelementptr inbounds nuw i16, ptr %146, i32 1
  store ptr %147, ptr %12, align 8
  %148 = load ptr, ptr %6, align 8
  %149 = getelementptr inbounds nuw i32, ptr %148, i32 1
  store ptr %149, ptr %6, align 8
  call void @llvm.lifetime.end.p0(i64 4, ptr %16) #8
  call void @llvm.lifetime.end.p0(i64 4, ptr %15) #8
  call void @llvm.lifetime.end.p0(i64 4, ptr %14) #8
  br label %150

150:                                              ; preds = %27
  %151 = load i32, ptr %11, align 4
  %152 = add nsw i32 %151, 1
  store i32 %152, ptr %11, align 4
  br label %23, !llvm.loop !80

153:                                              ; preds = %23
  %154 = load i32, ptr %8, align 4
  %155 = mul nsw i32 %154, 2
  call void @llvm.lifetime.end.p0(i64 4, ptr %13) #8
  call void @llvm.lifetime.end.p0(i64 8, ptr %12) #8
  call void @llvm.lifetime.end.p0(i64 4, ptr %11) #8
  ret i32 %155
}