; Function Attrs: nofree norecurse nosync nounwind memory(read, argmem: readwrite, inaccessiblemem: none) uwtable
define internal range(i32 -2147483648, 2147483647) i32 @uncopy_opaque_16(ptr noundef writeonly captures(none) %0, ptr noundef readonly captures(none) %1, i32 noundef %2, ptr noundef readonly captures(none) %3, ptr noundef readonly captures(none) %4) unnamed_addr #6 {
  %6 = getelementptr inbounds nuw i8, ptr %4, i64 20
  %7 = load i32, ptr %6, align 4
  %.not = icmp eq i32 %7, 0
  %8 = select i1 %.not, i32 0, i32 255
  %9 = icmp sgt i32 %2, 0
  br i1 %9, label %.lr.ph, label %._crit_edge

.lr.ph:                                           ; preds = %5
  %10 = getelementptr inbounds nuw i8, ptr %3, i64 24
  %11 = getelementptr inbounds nuw i8, ptr %3, i64 8
  %12 = getelementptr inbounds nuw i8, ptr %3, i64 28
  %13 = getelementptr inbounds nuw i8, ptr %3, i64 25
  %14 = getelementptr inbounds nuw i8, ptr %3, i64 12
  %15 = getelementptr inbounds nuw i8, ptr %3, i64 29
  %16 = getelementptr inbounds nuw i8, ptr %3, i64 26
  %17 = getelementptr inbounds nuw i8, ptr %3, i64 16
  %18 = getelementptr inbounds nuw i8, ptr %3, i64 30
  %19 = getelementptr inbounds nuw i8, ptr %4, i64 24
  %20 = getelementptr inbounds nuw i8, ptr %4, i64 28
  %21 = getelementptr inbounds nuw i8, ptr %4, i64 25
  %22 = getelementptr inbounds nuw i8, ptr %4, i64 29
  %23 = getelementptr inbounds nuw i8, ptr %4, i64 26
  %24 = getelementptr inbounds nuw i8, ptr %4, i64 30
  %25 = getelementptr inbounds nuw i8, ptr %4, i64 27
  %26 = getelementptr inbounds nuw i8, ptr %4, i64 31
  br label %27

27:                                               ; preds = %.lr.ph, %27
  %.037 = phi ptr [ %0, %.lr.ph ], [ %101, %27 ]
  %.03236 = phi i32 [ 0, %.lr.ph ], [ %102, %27 ]
  %.03335 = phi ptr [ %1, %.lr.ph ], [ %100, %27 ]
  %28 = load i8, ptr %10, align 4
  %29 = zext i8 %28 to i64
  %30 = getelementptr inbounds nuw [9 x ptr], ptr @SDL_expand_byte, i64 0, i64 %29
  %31 = load ptr, ptr %30, align 8
  %32 = load i16, ptr %.03335, align 2
  %33 = zext i16 %32 to i32
  %34 = load i32, ptr %11, align 4
  %35 = and i32 %34, %33
  %36 = load i8, ptr %12, align 4
  %37 = zext nneg i8 %36 to i32
  %38 = lshr i32 %35, %37
  %39 = zext nneg i32 %38 to i64
  %40 = getelementptr inbounds nuw i8, ptr %31, i64 %39
  %41 = load i8, ptr %40, align 1
  %42 = zext i8 %41 to i32
  %43 = load i8, ptr %13, align 1
  %44 = zext i8 %43 to i64
  %45 = getelementptr inbounds nuw [9 x ptr], ptr @SDL_expand_byte, i64 0, i64 %44
  %46 = load ptr, ptr %45, align 8
  %47 = load i32, ptr %14, align 4
  %48 = and i32 %47, %33
  %49 = load i8, ptr %15, align 1
  %50 = zext nneg i8 %49 to i32
  %51 = lshr i32 %48, %50
  %52 = zext nneg i32 %51 to i64
  %53 = getelementptr inbounds nuw i8, ptr %46, i64 %52
  %54 = load i8, ptr %53, align 1
  %55 = zext i8 %54 to i32
  %56 = load i8, ptr %16, align 2
  %57 = zext i8 %56 to i64
  %58 = getelementptr inbounds nuw [9 x ptr], ptr @SDL_expand_byte, i64 0, i64 %57
  %59 = load ptr, ptr %58, align 8
  %60 = load i32, ptr %17, align 4
  %61 = and i32 %60, %33
  %62 = load i8, ptr %18, align 2
  %63 = zext nneg i8 %62 to i32
  %64 = lshr i32 %61, %63
  %65 = zext nneg i32 %64 to i64
  %66 = getelementptr inbounds nuw i8, ptr %59, i64 %65
  %67 = load i8, ptr %66, align 1
  %68 = zext i8 %67 to i32
  %69 = load i8, ptr %19, align 4
  %70 = zext i8 %69 to i32
  %71 = sub nsw i32 8, %70
  %72 = lshr i32 %42, %71
  %73 = load i8, ptr %20, align 4
  %74 = zext nneg i8 %73 to i32
  %75 = shl i32 %72, %74
  %76 = load i8, ptr %21, align 1
  %77 = zext i8 %76 to i32
  %78 = sub nsw i32 8, %77
  %79 = lshr i32 %55, %78
  %80 = load i8, ptr %22, align 1
  %81 = zext nneg i8 %80 to i32
  %82 = shl i32 %79, %81
  %83 = or i32 %82, %75
  %84 = load i8, ptr %23, align 2
  %85 = zext i8 %84 to i32
  %86 = sub nsw i32 8, %85
  %87 = lshr i32 %68, %86
  %88 = load i8, ptr %24, align 2
  %89 = zext nneg i8 %88 to i32
  %90 = shl i32 %87, %89
  %91 = or i32 %83, %90
  %92 = load i8, ptr %25, align 1
  %93 = zext i8 %92 to i32
  %94 = sub nsw i32 8, %93
  %95 = lshr i32 %8, %94
  %96 = load i8, ptr %26, align 1
  %97 = zext nneg i8 %96 to i32
  %98 = shl i32 %95, %97
  %99 = or i32 %91, %98
  store i32 %99, ptr %.037, align 4
  %100 = getelementptr inbounds nuw i8, ptr %.03335, i64 2
  %101 = getelementptr inbounds nuw i8, ptr %.037, i64 4
  %102 = add nuw nsw i32 %.03236, 1
  %exitcond.not = icmp eq i32 %102, %2
  br i1 %exitcond.not, label %._crit_edge, label %27, !llvm.loop !82

._crit_edge:                                      ; preds = %27, %5
  %103 = shl nsw i32 %2, 1
  ret i32 %103
}